; Function Attrs: mustprogress nofree norecurse nounwind willreturn memory(readwrite, argmem: none, inaccessiblemem: none) uwtable
define hidden zeroext i1 @je_extent_in_dss(ptr noundef readnone captures(address) %0) local_unnamed_addr #0 {
atomic_load_p.exit:
  %1 = load atomic i64, ptr @dss_max.0 acquire, align 8
  %.0.i = inttoptr i64 %1 to ptr
  %2 = load ptr, ptr @dss_base, align 8, !tbaa !74
  %3 = icmp uge ptr %0, %2
  %4 = icmp ult ptr %0, %.0.i
  %5 = and i1 %4, %3
  ret i1 %5
}